target datalayout = "e-m:e-p270:32:32-p271:32:32-p272:64:64-i64:64-i128:128-f80:128-n8:16:32:64-S128"
target triple = "x86_64-pc-linux-gnu"

@_ZZN10OpenSubdiv6v3_6_03Far17PatchTableFactory12PatchFaceTag38assignBoundaryPropertiesFromVertexMaskEiE26singleBitVertexMaskToCount = internal constant [16 x i32] [i32 0, i32 1, i32 1, i32 -1, i32 1, i32 -1, i32 -1, i32 -1, i32 1, i32 -1, i32 -1, i32 -1, i32 -1, i32 -1, i32 -1, i32 -1], align 16
@_ZZN10OpenSubdiv6v3_6_03Far17PatchTableFactory12PatchFaceTag38assignBoundaryPropertiesFromVertexMaskEiE26singleBitVertexMaskToIndex = internal constant [16 x i32] [i32 0, i32 0, i32 1, i32 -1, i32 2, i32 -1, i32 -1, i32 -1, i32 3, i32 -1, i32 -1, i32 -1, i32 -1, i32 -1, i32 -1, i32 -1], align 16

; Function Attrs: mustprogress nounwind uwtable
define void @_ZN10OpenSubdiv6v3_6_03Far17PatchTableFactory12PatchFaceTag38assignBoundaryPropertiesFromVertexMaskEi(ptr noundef nonnull align 4 dereferenceable(4) %0, i32 noundef %1) #6 align 2 {
  %3 = alloca ptr, align 8
  %4 = alloca i32, align 4
  store ptr %0, ptr %3, align 8
  store i32 %1, ptr %4, align 4
  %5 = load ptr, ptr %3, align 8
  %6 = load i32, ptr %4, align 4
  %7 = load i32, ptr %5, align 4
  %8 = and i32 %6, 15
  %9 = shl i32 %8, 6
  %10 = and i32 %7, -961
  %11 = or i32 %10, %9
  store i32 %11, ptr %5, align 4
  %12 = load i32, ptr %4, align 4
  %13 = sext i32 %12 to i64
  %14 = getelementptr inbounds [16 x i32], ptr @_ZZN10OpenSubdiv6v3_6_03Far17PatchTableFactory12PatchFaceTag38assignBoundaryPropertiesFromVertexMaskEiE26singleBitVertexMaskToCount, i64 0, i64 %13
  %15 = load i32, ptr %14, align 4
  %16 = load i32, ptr %5, align 4
  %17 = and i32 %15, 7
  %18 = shl i32 %17, 12
  %19 = and i32 %16, -28673
  %20 = or i32 %19, %18
  store i32 %20, ptr %5, align 4
  %21 = load i32, ptr %4, align 4
  %22 = sext i32 %21 to i64
  %23 = getelementptr inbounds [16 x i32], ptr @_ZZN10OpenSubdiv6v3_6_03Far17PatchTableFactory12PatchFaceTag38assignBoundaryPropertiesFromVertexMaskEiE26singleBitVertexMaskToIndex, i64 0, i64 %22
  %24 = load i32, ptr %23, align 4
  %25 = load i32, ptr %5, align 4
  %26 = and i32 %24, 3
  %27 = shl i32 %26, 10
  %28 = and i32 %25, -3073
  %29 = or i32 %28, %27
  store i32 %29, ptr %5, align 4
  ret void
}