; Function Attrs: mustprogress nofree norecurse nosync nounwind willreturn memory(argmem: readwrite) uwtable
define void @_ZN10OpenSubdiv6v3_6_03Far17PatchTableFactory12PatchFaceTag38assignBoundaryPropertiesFromVertexMaskEi(ptr noundef nonnull align 4 captures(none) dereferenceable(4) %0, i32 noundef %1) local_unnamed_addr #11 align 2 {
  %3 = load i32, ptr %0, align 4
  %4 = shl i32 %1, 6
  %5 = and i32 %4, 960
  %6 = and i32 %3, -32705
  %7 = or disjoint i32 %6, %5
  %8 = sext i32 %1 to i64
  %9 = getelementptr inbounds [16 x i32], ptr @_ZZN10OpenSubdiv6v3_6_03Far17PatchTableFactory12PatchFaceTag38assignBoundaryPropertiesFromVertexMaskEiE26singleBitVertexMaskToCount, i64 0, i64 %8
  %10 = load i32, ptr %9, align 4
  %11 = shl i32 %10, 12
  %12 = and i32 %11, 28672
  %13 = or disjoint i32 %12, %7
  %14 = getelementptr inbounds [16 x i32], ptr @_ZZN10OpenSubdiv6v3_6_03Far17PatchTableFactory12PatchFaceTag38assignBoundaryPropertiesFromVertexMaskEiE26singleBitVertexMaskToIndex, i64 0, i64 %8
  %15 = load i32, ptr %14, align 4
  %16 = shl i32 %15, 10
  %17 = and i32 %16, 3072
  %18 = or disjoint i32 %13, %17
  store i32 %18, ptr %0, align 4
  ret void
}